; Function Attrs: nounwind uwtable
define dso_local void @lua_rawset(ptr noundef %0, i32 noundef %1) local_unnamed_addr #2 {
  %3 = icmp sgt i32 %1, 0
  br i1 %3, label %4, label %12

4:                                                ; preds = %2
  %5 = getelementptr inbounds nuw i8, ptr %0, i64 24
  %6 = load ptr, ptr %5, align 8, !tbaa !21
  %7 = zext nneg i32 %1 to i64
  %8 = getelementptr %struct.lua_TValue, ptr %6, i64 %7
  %9 = getelementptr i8, ptr %8, i64 -16
  %10 = getelementptr inbounds nuw i8, ptr %0, i64 16
  %11 = load ptr, ptr %10, align 8, !tbaa !4
  %.not28.i = icmp ult ptr %9, %11
  %.luaO_nilobject_.i = select i1 %.not28.i, ptr %9, ptr @luaO_nilobject_
  br label %index2adr.exit

12:                                               ; preds = %2
  %13 = icmp sgt i32 %1, -10000
  br i1 %13, label %14, label %19

14:                                               ; preds = %12
  %15 = getelementptr inbounds nuw i8, ptr %0, i64 16
  %16 = load ptr, ptr %15, align 8, !tbaa !4
  %17 = sext i32 %1 to i64
  %18 = getelementptr inbounds %struct.lua_TValue, ptr %16, i64 %17
  br label %index2adr.exit

19:                                               ; preds = %12
  switch i32 %1, label %36 [
    i32 -10000, label %20
    i32 -10001, label %24
    i32 -10002, label %34
  ]

20:                                               ; preds = %19
  %21 = getelementptr inbounds nuw i8, ptr %0, i64 32
  %22 = load ptr, ptr %21, align 8, !tbaa !29
  %23 = getelementptr inbounds nuw i8, ptr %22, i64 160
  br label %index2adr.exit

24:                                               ; preds = %19
  %25 = getelementptr inbounds nuw i8, ptr %0, i64 40
  %26 = load ptr, ptr %25, align 8, !tbaa !23
  %27 = getelementptr inbounds nuw i8, ptr %26, i64 8
  %28 = load ptr, ptr %27, align 8, !tbaa !41
  %29 = load ptr, ptr %28, align 8, !tbaa !19
  %30 = getelementptr inbounds nuw i8, ptr %0, i64 136
  %31 = getelementptr inbounds nuw i8, ptr %29, i64 24
  %32 = load ptr, ptr %31, align 8, !tbaa !19
  store ptr %32, ptr %30, align 8, !tbaa !19
  %33 = getelementptr inbounds nuw i8, ptr %0, i64 144
  store i32 5, ptr %33, align 8, !tbaa !20
  br label %index2adr.exit

34:                                               ; preds = %19
  %35 = getelementptr inbounds nuw i8, ptr %0, i64 120
  br label %index2adr.exit

36:                                               ; preds = %19
  %37 = getelementptr inbounds nuw i8, ptr %0, i64 40
  %38 = load ptr, ptr %37, align 8, !tbaa !23
  %39 = getelementptr inbounds nuw i8, ptr %38, i64 8
  %40 = load ptr, ptr %39, align 8, !tbaa !41
  %41 = load ptr, ptr %40, align 8, !tbaa !19
  %42 = sub nuw nsw i32 -10002, %1
  %43 = getelementptr inbounds nuw i8, ptr %41, i64 11
  %44 = load i8, ptr %43, align 1, !tbaa !19
  %45 = zext i8 %44 to i32
  %.not.i = icmp samesign ugt i32 %42, %45
  %46 = getelementptr inbounds nuw i8, ptr %41, i64 40
  %47 = sub nuw nsw i32 -10003, %1
  %48 = zext nneg i32 %47 to i64
  %49 = getelementptr inbounds nuw [1 x %struct.lua_TValue], ptr %46, i64 0, i64 %48
  %50 = select i1 %.not.i, ptr @luaO_nilobject_, ptr %49
  br label %index2adr.exit

index2adr.exit:                                   ; preds = %4, %14, %20, %24, %34, %36
  %.1.i = phi ptr [ %.luaO_nilobject_.i, %4 ], [ %18, %14 ], [ %50, %36 ], [ %35, %34 ], [ %30, %24 ], [ %23, %20 ]
  %51 = load ptr, ptr %.1.i, align 8, !tbaa !19
  %52 = getelementptr inbounds nuw i8, ptr %51, i64 12
  %53 = load i32, ptr %52, align 4, !tbaa !19
  %.not = icmp eq i32 %53, 0
  br i1 %.not, label %55, label %54

54:                                               ; preds = %index2adr.exit
  tail call void (ptr, ptr, ...) @luaG_runerror(ptr noundef %0, ptr noundef nonnull @.str.2) #14
  %.pre = load ptr, ptr %.1.i, align 8, !tbaa !19
  br label %55

55:                                               ; preds = %54, %index2adr.exit
  %56 = phi ptr [ %.pre, %54 ], [ %51, %index2adr.exit ]
  %57 = getelementptr inbounds nuw i8, ptr %0, i64 16
  %58 = load ptr, ptr %57, align 8, !tbaa !4
  %59 = getelementptr inbounds i8, ptr %58, i64 -16
  %60 = getelementptr inbounds i8, ptr %58, i64 -32
  %61 = tail call ptr @luaH_set(ptr noundef %0, ptr noundef %56, ptr noundef nonnull %60) #14
  %62 = load i64, ptr %59, align 8, !tbaa !19
  store i64 %62, ptr %61, align 8, !tbaa !19
  %63 = getelementptr inbounds i8, ptr %58, i64 -8
  %64 = load i32, ptr %63, align 8, !tbaa !20
  %65 = getelementptr inbounds nuw i8, ptr %61, i64 8
  store i32 %64, ptr %65, align 8, !tbaa !20
  %66 = load ptr, ptr %57, align 8, !tbaa !4
  %67 = getelementptr inbounds i8, ptr %66, i64 -8
  %68 = load i32, ptr %67, align 8, !tbaa !20
  %69 = icmp sgt i32 %68, 3
  br i1 %69, label %70, label %82

70:                                               ; preds = %55
  %71 = getelementptr inbounds i8, ptr %66, i64 -16
  %72 = load ptr, ptr %71, align 8, !tbaa !19
  %73 = getelementptr inbounds nuw i8, ptr %72, i64 9
  %74 = load i8, ptr %73, align 1, !tbaa !19
  %75 = and i8 %74, 3
  %.not17 = icmp eq i8 %75, 0
  br i1 %.not17, label %82, label %76

76:                                               ; preds = %70
  %77 = load ptr, ptr %.1.i, align 8, !tbaa !19
  %78 = getelementptr inbounds nuw i8, ptr %77, i64 9
  %79 = load i8, ptr %78, align 1, !tbaa !19
  %80 = and i8 %79, 4
  %.not18 = icmp eq i8 %80, 0
  br i1 %.not18, label %82, label %81

81:                                               ; preds = %76
  tail call void @luaC_barrierback(ptr noundef nonnull %0, ptr noundef nonnull %77) #14
  %.pre19 = load ptr, ptr %57, align 8, !tbaa !4
  br label %82

82:                                               ; preds = %81, %76, %70, %55
  %83 = phi ptr [ %.pre19, %81 ], [ %66, %76 ], [ %66, %70 ], [ %66, %55 ]
  %84 = getelementptr inbounds i8, ptr %83, i64 -32
  store ptr %84, ptr %57, align 8, !tbaa !4
  ret void
}